target datalayout = "e-m:e-p270:32:32-p271:32:32-p272:64:64-i64:64-i128:128-f80:128-n8:16:32:64-S128"
target triple = "x86_64-pc-linux-gnu"

%struct.mutex_entry = type { i64, i32 }
%struct.PyMutex = type { i8 }

; Function Attrs: nounwind uwtable
define internal void @_Py_yield() #0 {
  %1 = call i32 @sched_yield() #7
  ret void
}

; Function Attrs: inlinehint nounwind uwtable
define internal i32 @_Py_atomic_compare_exchange_uint8(ptr noundef %0, ptr noundef %1, i8 noundef zeroext %2) #2 {
  %4 = alloca ptr, align 8
  %5 = alloca ptr, align 8
  %6 = alloca i8, align 1
  %7 = alloca i8, align 1
  %8 = alloca i8, align 1
  store ptr %0, ptr %4, align 8, !tbaa !17
  store ptr %1, ptr %5, align 8, !tbaa !17
  store i8 %2, ptr %6, align 1, !tbaa !13
  %9 = load ptr, ptr %4, align 8, !tbaa !17
  %10 = load ptr, ptr %5, align 8, !tbaa !17
  %11 = load i8, ptr %6, align 1, !tbaa !13
  store i8 %11, ptr %7, align 1, !tbaa !13
  %12 = load i8, ptr %10, align 1
  %13 = load i8, ptr %7, align 1
  %14 = cmpxchg ptr %9, i8 %12, i8 %13 seq_cst seq_cst, align 1
  %15 = extractvalue { i8, i1 } %14, 0
  %16 = extractvalue { i8, i1 } %14, 1
  br i1 %16, label %18, label %17

17:                                               ; preds = %3
  store i8 %15, ptr %10, align 1
  br label %18

18:                                               ; preds = %17, %3
  %19 = zext i1 %16 to i8
  store i8 %19, ptr %8, align 1, !tbaa !19
  %20 = load i8, ptr %8, align 1, !tbaa !19, !range !21, !noundef !22
  %21 = trunc i8 %20 to i1
  %22 = zext i1 %21 to i32
  ret i32 %22
}

; Function Attrs: inlinehint nounwind uwtable
define internal zeroext i8 @_Py_atomic_load_uint8_relaxed(ptr noundef %0) #2 {
  %2 = alloca ptr, align 8
  %3 = alloca i8, align 1
  store ptr %0, ptr %2, align 8, !tbaa !17
  %4 = load ptr, ptr %2, align 8, !tbaa !17
  %5 = load atomic i8, ptr %4 monotonic, align 1
  store i8 %5, ptr %3, align 1
  %6 = load i8, ptr %3, align 1, !tbaa !13
  ret i8 %6
}

; Function Attrs: nounwind uwtable
define hidden i32 @_PyMutex_LockTimed(ptr noundef %0, i64 noundef %1, i32 noundef %2) #0 {
  %4 = alloca i32, align 4
  %5 = alloca ptr, align 8
  %6 = alloca i64, align 8
  %7 = alloca i32, align 4
  %8 = alloca i8, align 1
  %9 = alloca i32, align 4
  %10 = alloca i64, align 8
  %11 = alloca i64, align 8
  %12 = alloca %struct.mutex_entry, align 8
  %13 = alloca i64, align 8
  %14 = alloca i8, align 1
  %15 = alloca i32, align 4
  store ptr %0, ptr %5, align 8, !tbaa !4
  store i64 %1, ptr %6, align 8, !tbaa !9
  store i32 %2, ptr %7, align 4, !tbaa !11
  call void @llvm.lifetime.start.p0(i64 1, ptr %8) #7
  %16 = load ptr, ptr %5, align 8, !tbaa !4
  %17 = getelementptr inbounds nuw %struct.PyMutex, ptr %16, i32 0, i32 0
  %18 = call zeroext i8 @_Py_atomic_load_uint8_relaxed(ptr noundef %17)
  store i8 %18, ptr %8, align 1, !tbaa !13
  %19 = load i8, ptr %8, align 1, !tbaa !13
  %20 = zext i8 %19 to i32
  %21 = and i32 %20, 1
  %22 = icmp eq i32 %21, 0
  br i1 %22, label %23, label %34

23:                                               ; preds = %3
  %24 = load ptr, ptr %5, align 8, !tbaa !4
  %25 = getelementptr inbounds nuw %struct.PyMutex, ptr %24, i32 0, i32 0
  %26 = load i8, ptr %8, align 1, !tbaa !13
  %27 = zext i8 %26 to i32
  %28 = or i32 %27, 1
  %29 = trunc i32 %28 to i8
  %30 = call i32 @_Py_atomic_compare_exchange_uint8(ptr noundef %25, ptr noundef %8, i8 noundef zeroext %29)
  %31 = icmp ne i32 %30, 0
  br i1 %31, label %32, label %33

32:                                               ; preds = %23
  store i32 1, ptr %4, align 4
  store i32 1, ptr %9, align 4
  br label %156

33:                                               ; preds = %23
  br label %39

34:                                               ; preds = %3
  %35 = load i64, ptr %6, align 8, !tbaa !9
  %36 = icmp eq i64 %35, 0
  br i1 %36, label %37, label %38

37:                                               ; preds = %34
  store i32 0, ptr %4, align 4
  store i32 1, ptr %9, align 4
  br label %156

38:                                               ; preds = %34
  br label %39

39:                                               ; preds = %38, %33
  call void @llvm.lifetime.start.p0(i64 8, ptr %10) #7
  %40 = call i32 @PyTime_MonotonicRaw(ptr noundef %10)
  call void @llvm.lifetime.start.p0(i64 8, ptr %11) #7
  store i64 0, ptr %11, align 8, !tbaa !9
  %41 = load i64, ptr %6, align 8, !tbaa !9
  %42 = icmp sgt i64 %41, 0
  br i1 %42, label %43, label %47

43:                                               ; preds = %39
  %44 = load i64, ptr %10, align 8, !tbaa !9
  %45 = load i64, ptr %6, align 8, !tbaa !9
  %46 = call i64 @_PyTime_Add(i64 noundef %44, i64 noundef %45)
  store i64 %46, ptr %11, align 8, !tbaa !9
  br label %47

47:                                               ; preds = %43, %39
  call void @llvm.lifetime.start.p0(i64 16, ptr %12) #7
  %48 = getelementptr inbounds nuw %struct.mutex_entry, ptr %12, i32 0, i32 0
  %49 = load i64, ptr %10, align 8, !tbaa !9
  %50 = add i64 %49, 1000000
  store i64 %50, ptr %48, align 8, !tbaa !14
  %51 = getelementptr inbounds nuw %struct.mutex_entry, ptr %12, i32 0, i32 1
  store i32 0, ptr %51, align 8, !tbaa !16
  %52 = getelementptr i8, ptr %12, i64 12
  call void @llvm.memset.p0.i64(ptr align 4 %52, i8 0, i64 4, i1 false)
  call void @llvm.lifetime.start.p0(i64 8, ptr %13) #7
  store i64 0, ptr %13, align 8, !tbaa !9
  br label %53

53:                                               ; preds = %154, %152, %77, %68, %47
  %54 = load i8, ptr %8, align 1, !tbaa !13
  %55 = zext i8 %54 to i32
  %56 = and i32 %55, 1
  %57 = icmp eq i32 %56, 0
  br i1 %57, label %58, label %69

58:                                               ; preds = %53
  %59 = load ptr, ptr %5, align 8, !tbaa !4
  %60 = getelementptr inbounds nuw %struct.PyMutex, ptr %59, i32 0, i32 0
  %61 = load i8, ptr %8, align 1, !tbaa !13
  %62 = zext i8 %61 to i32
  %63 = or i32 %62, 1
  %64 = trunc i32 %63 to i8
  %65 = call i32 @_Py_atomic_compare_exchange_uint8(ptr noundef %60, ptr noundef %8, i8 noundef zeroext %64)
  %66 = icmp ne i32 %65, 0
  br i1 %66, label %67, label %68

67:                                               ; preds = %58
  store i32 1, ptr %4, align 4
  store i32 1, ptr %9, align 4
  br label %155

68:                                               ; preds = %58
  br label %53

69:                                               ; preds = %53
  %70 = load i8, ptr %8, align 1, !tbaa !13
  %71 = zext i8 %70 to i32
  %72 = and i32 %71, 2
  %73 = icmp ne i32 %72, 0
  br i1 %73, label %80, label %74

74:                                               ; preds = %69
  %75 = load i64, ptr %13, align 8, !tbaa !9
  %76 = icmp slt i64 %75, 0
  br i1 %76, label %77, label %80

77:                                               ; preds = %74
  call void @_Py_yield()
  %78 = load i64, ptr %13, align 8, !tbaa !9
  %79 = add i64 %78, 1
  store i64 %79, ptr %13, align 8, !tbaa !9
  br label %53

80:                                               ; preds = %74, %69
  %81 = load i64, ptr %6, align 8, !tbaa !9
  %82 = icmp eq i64 %81, 0
  br i1 %82, label %83, label %84

83:                                               ; preds = %80
  store i32 0, ptr %4, align 4
  store i32 1, ptr %9, align 4
  br label %155

84:                                               ; preds = %80
  call void @llvm.lifetime.start.p0(i64 1, ptr %14) #7
  %85 = load i8, ptr %8, align 1, !tbaa !13
  store i8 %85, ptr %14, align 1, !tbaa !13
  %86 = load i8, ptr %8, align 1, !tbaa !13
  %87 = zext i8 %86 to i32
  %88 = and i32 %87, 2
  %89 = icmp ne i32 %88, 0
  br i1 %89, label %102, label %90

90:                                               ; preds = %84
  %91 = load i8, ptr %8, align 1, !tbaa !13
  %92 = zext i8 %91 to i32
  %93 = or i32 %92, 2
  %94 = trunc i32 %93 to i8
  store i8 %94, ptr %14, align 1, !tbaa !13
  %95 = load ptr, ptr %5, align 8, !tbaa !4
  %96 = getelementptr inbounds nuw %struct.PyMutex, ptr %95, i32 0, i32 0
  %97 = load i8, ptr %14, align 1, !tbaa !13
  %98 = call i32 @_Py_atomic_compare_exchange_uint8(ptr noundef %96, ptr noundef %8, i8 noundef zeroext %97)
  %99 = icmp ne i32 %98, 0
  br i1 %99, label %101, label %100

100:                                              ; preds = %90
  store i32 3, ptr %9, align 4
  br label %152

101:                                              ; preds = %90
  br label %102

102:                                              ; preds = %101, %84
  call void @llvm.lifetime.start.p0(i64 4, ptr %15) #7
  %103 = load ptr, ptr %5, align 8, !tbaa !4
  %104 = getelementptr inbounds nuw %struct.PyMutex, ptr %103, i32 0, i32 0
  %105 = load i64, ptr %6, align 8, !tbaa !9
  %106 = load i32, ptr %7, align 4, !tbaa !11
  %107 = and i32 %106, 1
  %108 = icmp ne i32 %107, 0
  %109 = zext i1 %108 to i32
  %110 = call i32 @_PyParkingLot_Park(ptr noundef %104, ptr noundef %14, i64 noundef 1, i64 noundef %105, ptr noundef %12, i32 noundef %109)
  store i32 %110, ptr %15, align 4, !tbaa !11
  %111 = load i32, ptr %15, align 4, !tbaa !11
  %112 = icmp eq i32 %111, 0
  br i1 %112, label %113, label %119

113:                                              ; preds = %102
  %114 = getelementptr inbounds nuw %struct.mutex_entry, ptr %12, i32 0, i32 1
  %115 = load i32, ptr %114, align 8, !tbaa !16
  %116 = icmp ne i32 %115, 0
  br i1 %116, label %117, label %118

117:                                              ; preds = %113
  store i32 1, ptr %4, align 4
  store i32 1, ptr %9, align 4
  br label %151

118:                                              ; preds = %113
  br label %137

119:                                              ; preds = %102
  %120 = load i32, ptr %15, align 4, !tbaa !11
  %121 = icmp eq i32 %120, -3
  br i1 %121, label %122, label %131

122:                                              ; preds = %119
  %123 = load i32, ptr %7, align 4, !tbaa !11
  %124 = and i32 %123, 2
  %125 = icmp ne i32 %124, 0
  br i1 %125, label %126, label %131

126:                                              ; preds = %122
  %127 = call i32 @Py_MakePendingCalls()
  %128 = icmp slt i32 %127, 0
  br i1 %128, label %129, label %130

129:                                              ; preds = %126
  store i32 2, ptr %4, align 4
  store i32 1, ptr %9, align 4
  br label %151

130:                                              ; preds = %126
  br label %136

131:                                              ; preds = %122, %119
  %132 = load i32, ptr %15, align 4, !tbaa !11
  %133 = icmp eq i32 %132, -2
  br i1 %133, label %134, label %135

134:                                              ; preds = %131
  store i32 0, ptr %4, align 4
  store i32 1, ptr %9, align 4
  br label %151

135:                                              ; preds = %131
  br label %136

136:                                              ; preds = %135, %130
  br label %137

137:                                              ; preds = %136, %118
  %138 = load i64, ptr %6, align 8, !tbaa !9
  %139 = icmp sgt i64 %138, 0
  br i1 %139, label %140, label %147

140:                                              ; preds = %137
  %141 = load i64, ptr %11, align 8, !tbaa !9
  %142 = call i64 @_PyDeadline_Get(i64 noundef %141)
  store i64 %142, ptr %6, align 8, !tbaa !9
  %143 = load i64, ptr %6, align 8, !tbaa !9
  %144 = icmp sle i64 %143, 0
  br i1 %144, label %145, label %146

145:                                              ; preds = %140
  store i64 0, ptr %6, align 8, !tbaa !9
  br label %146

146:                                              ; preds = %145, %140
  br label %147

147:                                              ; preds = %146, %137
  %148 = load ptr, ptr %5, align 8, !tbaa !4
  %149 = getelementptr inbounds nuw %struct.PyMutex, ptr %148, i32 0, i32 0
  %150 = call zeroext i8 @_Py_atomic_load_uint8_relaxed(ptr noundef %149)
  store i8 %150, ptr %8, align 1, !tbaa !13
  store i32 0, ptr %9, align 4
  br label %151

151:                                              ; preds = %147, %134, %129, %117
  call void @llvm.lifetime.end.p0(i64 4, ptr %15) #7
  br label %152

152:                                              ; preds = %151, %100
  call void @llvm.lifetime.end.p0(i64 1, ptr %14) #7
  %153 = load i32, ptr %9, align 4
  switch i32 %153, label %155 [
    i32 0, label %154
    i32 3, label %53
  ]

154:                                              ; preds = %152
  br label %53

155:                                              ; preds = %152, %83, %67
  call void @llvm.lifetime.end.p0(i64 8, ptr %13) #7
  call void @llvm.lifetime.end.p0(i64 16, ptr %12) #7
  call void @llvm.lifetime.end.p0(i64 8, ptr %11) #7
  call void @llvm.lifetime.end.p0(i64 8, ptr %10) #7
  br label %156

156:                                              ; preds = %155, %37, %32
  call void @llvm.lifetime.end.p0(i64 1, ptr %8) #7
  %157 = load i32, ptr %4, align 4
  ret i32 %157
}