; Function Attrs: nounwind uwtable
define hidden range(i32 0, 3) i32 @_PyMutex_LockTimed(ptr noundef %0, i64 noundef %1, i32 noundef %2) local_unnamed_addr #0 {
  %4 = alloca i64, align 8
  %5 = alloca %struct.mutex_entry, align 8
  %6 = alloca i8, align 1
  %7 = load atomic i8, ptr %0 monotonic, align 1
  %8 = and i8 %7, 1
  %9 = icmp eq i8 %8, 0
  br i1 %9, label %10, label %15

10:                                               ; preds = %3
  %11 = or disjoint i8 %7, 1
  %12 = cmpxchg ptr %0, i8 %7, i8 %11 seq_cst seq_cst, align 1
  %13 = extractvalue { i8, i1 } %12, 1
  br i1 %13, label %_Py_atomic_compare_exchange_uint8.exit, label %_Py_atomic_compare_exchange_uint8.exit.thread

_Py_atomic_compare_exchange_uint8.exit.thread:    ; preds = %10
  %14 = extractvalue { i8, i1 } %12, 0
  br label %17

15:                                               ; preds = %3
  %16 = icmp eq i64 %1, 0
  br i1 %16, label %_Py_atomic_compare_exchange_uint8.exit, label %17

17:                                               ; preds = %_Py_atomic_compare_exchange_uint8.exit.thread, %15
  %.044 = phi i8 [ %7, %15 ], [ %14, %_Py_atomic_compare_exchange_uint8.exit.thread ]
  call void @llvm.lifetime.start.p0(i64 8, ptr nonnull %4) #8
  %18 = call i32 @PyTime_MonotonicRaw(ptr noundef nonnull %4) #8
  %19 = icmp sgt i64 %1, 0
  br i1 %19, label %20, label %23

20:                                               ; preds = %17
  %21 = load i64, ptr %4, align 8, !tbaa !4
  %22 = call i64 @_PyTime_Add(i64 noundef %21, i64 noundef %1) #8
  br label %23

23:                                               ; preds = %20, %17
  %.024 = phi i64 [ %22, %20 ], [ 0, %17 ]
  call void @llvm.lifetime.start.p0(i64 16, ptr nonnull %5) #8
  %24 = load i64, ptr %4, align 8, !tbaa !4
  %25 = add i64 %24, 1000000
  store i64 %25, ptr %5, align 8, !tbaa !8
  %26 = getelementptr inbounds nuw i8, ptr %5, i64 8
  store i32 0, ptr %26, align 8, !tbaa !11
  %27 = getelementptr inbounds nuw i8, ptr %5, i64 12
  store i32 0, ptr %27, align 4
  %28 = and i32 %2, 1
  %29 = and i32 %2, 2
  %.not35 = icmp eq i32 %29, 0
  br i1 %.not35, label %.outer.us, label %.outer

.outer.us:                                        ; preds = %23, %49
  %.145.ph.us = phi i8 [ %.347.us, %49 ], [ %.044, %23 ]
  %.027.ph.us = phi i64 [ %.128.us, %49 ], [ %1, %23 ]
  %30 = and i8 %.145.ph.us, 1
  %31 = icmp eq i8 %30, 0
  br i1 %31, label %.lr.ph.us, label %._crit_edge.us

._crit_edge.us:                                   ; preds = %_Py_atomic_compare_exchange_uint8.exit38.us, %.outer.us
  %.145.lcssa.us = phi i8 [ %.145.ph.us, %.outer.us ], [ %53, %_Py_atomic_compare_exchange_uint8.exit38.us ]
  %32 = icmp eq i64 %.027.ph.us, 0
  br i1 %32, label %_Py_atomic_compare_exchange_uint8.exit38.thread, label %33

33:                                               ; preds = %._crit_edge.us
  call void @llvm.lifetime.start.p0(i64 1, ptr nonnull %6) #8
  store i8 %.145.lcssa.us, ptr %6, align 1, !tbaa !12
  %34 = and i8 %.145.lcssa.us, 2
  %.not33.us = icmp eq i8 %34, 0
  br i1 %.not33.us, label %35, label %_Py_atomic_compare_exchange_uint8.exit39.us

35:                                               ; preds = %33
  %36 = or disjoint i8 %.145.lcssa.us, 2
  store i8 %36, ptr %6, align 1, !tbaa !12
  %37 = cmpxchg ptr %0, i8 %.145.lcssa.us, i8 %36 seq_cst seq_cst, align 1
  %38 = extractvalue { i8, i1 } %37, 1
  br i1 %38, label %_Py_atomic_compare_exchange_uint8.exit39.us, label %_Py_atomic_compare_exchange_uint8.exit39.thread.us

_Py_atomic_compare_exchange_uint8.exit39.thread.us: ; preds = %35
  %39 = extractvalue { i8, i1 } %37, 0
  br label %49

_Py_atomic_compare_exchange_uint8.exit39.us:      ; preds = %35, %33
  %40 = call i32 @_PyParkingLot_Park(ptr noundef nonnull %0, ptr noundef nonnull %6, i64 noundef 1, i64 noundef %.027.ph.us, ptr noundef nonnull %5, i32 noundef %28) #8
  switch i32 %40, label %43 [
    i32 0, label %41
    i32 -2, label %.thread
  ]

41:                                               ; preds = %_Py_atomic_compare_exchange_uint8.exit39.us
  %42 = load i32, ptr %26, align 8, !tbaa !11
  %.not36.us = icmp eq i32 %42, 0
  br i1 %.not36.us, label %43, label %.thread

43:                                               ; preds = %41, %_Py_atomic_compare_exchange_uint8.exit39.us
  %44 = icmp sgt i64 %.027.ph.us, 0
  br i1 %44, label %45, label %47

45:                                               ; preds = %43
  %46 = call i64 @_PyDeadline_Get(i64 noundef %.024) #8
  %spec.store.select.us = call i64 @llvm.smax.i64(i64 %46, i64 0)
  br label %47

47:                                               ; preds = %45, %43
  %.330.us = phi i64 [ %spec.store.select.us, %45 ], [ %.027.ph.us, %43 ]
  %48 = load atomic i8, ptr %0 monotonic, align 1
  br label %49

49:                                               ; preds = %47, %_Py_atomic_compare_exchange_uint8.exit39.thread.us
  %.347.us = phi i8 [ %48, %47 ], [ %39, %_Py_atomic_compare_exchange_uint8.exit39.thread.us ]
  %.128.us = phi i64 [ %.330.us, %47 ], [ %.027.ph.us, %_Py_atomic_compare_exchange_uint8.exit39.thread.us ]
  call void @llvm.lifetime.end.p0(i64 1, ptr nonnull %6) #8
  br label %.outer.us

.lr.ph.us:                                        ; preds = %.outer.us, %_Py_atomic_compare_exchange_uint8.exit38.us
  %.14560.us = phi i8 [ %53, %_Py_atomic_compare_exchange_uint8.exit38.us ], [ %.145.ph.us, %.outer.us ]
  %50 = or disjoint i8 %.14560.us, 1
  %51 = cmpxchg ptr %0, i8 %.14560.us, i8 %50 seq_cst seq_cst, align 1
  %52 = extractvalue { i8, i1 } %51, 1
  br i1 %52, label %_Py_atomic_compare_exchange_uint8.exit38.thread, label %_Py_atomic_compare_exchange_uint8.exit38.us

_Py_atomic_compare_exchange_uint8.exit38.us:      ; preds = %.lr.ph.us
  %53 = extractvalue { i8, i1 } %51, 0
  %54 = and i8 %53, 1
  %55 = icmp eq i8 %54, 0
  br i1 %55, label %.lr.ph.us, label %._crit_edge.us

.outer:                                           ; preds = %23, %84
  %.145.ph = phi i8 [ %.347, %84 ], [ %.044, %23 ]
  %.027.ph = phi i64 [ %.128, %84 ], [ %1, %23 ]
  %56 = and i8 %.145.ph, 1
  %57 = icmp eq i8 %56, 0
  br i1 %57, label %.lr.ph, label %._crit_edge

.lr.ph:                                           ; preds = %.outer, %_Py_atomic_compare_exchange_uint8.exit38
  %.14560 = phi i8 [ %61, %_Py_atomic_compare_exchange_uint8.exit38 ], [ %.145.ph, %.outer ]
  %58 = or disjoint i8 %.14560, 1
  %59 = cmpxchg ptr %0, i8 %.14560, i8 %58 seq_cst seq_cst, align 1
  %60 = extractvalue { i8, i1 } %59, 1
  br i1 %60, label %_Py_atomic_compare_exchange_uint8.exit38.thread, label %_Py_atomic_compare_exchange_uint8.exit38

_Py_atomic_compare_exchange_uint8.exit38:         ; preds = %.lr.ph
  %61 = extractvalue { i8, i1 } %59, 0
  %62 = and i8 %61, 1
  %63 = icmp eq i8 %62, 0
  br i1 %63, label %.lr.ph, label %._crit_edge

._crit_edge:                                      ; preds = %_Py_atomic_compare_exchange_uint8.exit38, %.outer
  %.145.lcssa = phi i8 [ %.145.ph, %.outer ], [ %61, %_Py_atomic_compare_exchange_uint8.exit38 ]
  %64 = icmp eq i64 %.027.ph, 0
  br i1 %64, label %_Py_atomic_compare_exchange_uint8.exit38.thread, label %65

65:                                               ; preds = %._crit_edge
  call void @llvm.lifetime.start.p0(i64 1, ptr nonnull %6) #8
  store i8 %.145.lcssa, ptr %6, align 1, !tbaa !12
  %66 = and i8 %.145.lcssa, 2
  %.not33 = icmp eq i8 %66, 0
  br i1 %.not33, label %67, label %_Py_atomic_compare_exchange_uint8.exit39

67:                                               ; preds = %65
  %68 = or disjoint i8 %.145.lcssa, 2
  store i8 %68, ptr %6, align 1, !tbaa !12
  %69 = cmpxchg ptr %0, i8 %.145.lcssa, i8 %68 seq_cst seq_cst, align 1
  %70 = extractvalue { i8, i1 } %69, 1
  br i1 %70, label %_Py_atomic_compare_exchange_uint8.exit39, label %_Py_atomic_compare_exchange_uint8.exit39.thread

_Py_atomic_compare_exchange_uint8.exit39.thread:  ; preds = %67
  %71 = extractvalue { i8, i1 } %69, 0
  br label %84

_Py_atomic_compare_exchange_uint8.exit39:         ; preds = %67, %65
  %72 = call i32 @_PyParkingLot_Park(ptr noundef nonnull %0, ptr noundef nonnull %6, i64 noundef 1, i64 noundef %.027.ph, ptr noundef nonnull %5, i32 noundef %28) #8
  switch i32 %72, label %78 [
    i32 0, label %73
    i32 -3, label %75
    i32 -2, label %.thread
  ]

73:                                               ; preds = %_Py_atomic_compare_exchange_uint8.exit39
  %74 = load i32, ptr %26, align 8, !tbaa !11
  %.not36 = icmp eq i32 %74, 0
  br i1 %.not36, label %78, label %.thread

75:                                               ; preds = %_Py_atomic_compare_exchange_uint8.exit39
  %76 = call i32 @Py_MakePendingCalls() #8
  %77 = icmp slt i32 %76, 0
  br i1 %77, label %.thread, label %78

78:                                               ; preds = %_Py_atomic_compare_exchange_uint8.exit39, %75, %73
  %79 = icmp sgt i64 %.027.ph, 0
  br i1 %79, label %80, label %82

80:                                               ; preds = %78
  %81 = call i64 @_PyDeadline_Get(i64 noundef %.024) #8
  %spec.store.select = call i64 @llvm.smax.i64(i64 %81, i64 0)
  br label %82

82:                                               ; preds = %80, %78
  %.330 = phi i64 [ %spec.store.select, %80 ], [ %.027.ph, %78 ]
  %83 = load atomic i8, ptr %0 monotonic, align 1
  br label %84

.thread:                                          ; preds = %_Py_atomic_compare_exchange_uint8.exit39, %75, %73, %_Py_atomic_compare_exchange_uint8.exit39.us, %41
  %.us-phi = phi i32 [ 0, %_Py_atomic_compare_exchange_uint8.exit39.us ], [ 1, %41 ], [ 0, %_Py_atomic_compare_exchange_uint8.exit39 ], [ 2, %75 ], [ 1, %73 ]
  call void @llvm.lifetime.end.p0(i64 1, ptr nonnull %6) #8
  br label %_Py_atomic_compare_exchange_uint8.exit38.thread

84:                                               ; preds = %_Py_atomic_compare_exchange_uint8.exit39.thread, %82
  %.347 = phi i8 [ %83, %82 ], [ %71, %_Py_atomic_compare_exchange_uint8.exit39.thread ]
  %.128 = phi i64 [ %.330, %82 ], [ %.027.ph, %_Py_atomic_compare_exchange_uint8.exit39.thread ]
  call void @llvm.lifetime.end.p0(i64 1, ptr nonnull %6) #8
  br label %.outer

_Py_atomic_compare_exchange_uint8.exit38.thread:  ; preds = %._crit_edge, %.lr.ph, %._crit_edge.us, %.lr.ph.us, %.thread
  %.2 = phi i32 [ %.us-phi, %.thread ], [ 1, %.lr.ph.us ], [ 0, %._crit_edge.us ], [ 1, %.lr.ph ], [ 0, %._crit_edge ]
  call void @llvm.lifetime.end.p0(i64 16, ptr nonnull %5) #8
  call void @llvm.lifetime.end.p0(i64 8, ptr nonnull %4) #8
  br label %_Py_atomic_compare_exchange_uint8.exit

_Py_atomic_compare_exchange_uint8.exit:           ; preds = %10, %15, %_Py_atomic_compare_exchange_uint8.exit38.thread
  %.0 = phi i32 [ %.2, %_Py_atomic_compare_exchange_uint8.exit38.thread ], [ 0, %15 ], [ 1, %10 ]
  ret i32 %.0
}